(dp0
S'B100_2'
p1
(dp2
I1
(dp3
S'test'
p4
F0.256142365097589
sS'train'
p5
F0.2514924079165738
ssI10
(dp6
g4
F0.10947187141216992
sg5
F0.03817096430606128
ssI3
(dp7
g4
F0.21739380022962113
sg5
F0.20685640682668252
ssI6
(dp8
g4
F0.16699196326061996
sg5
F0.13497312427237373
sssS'B_10p_iter'
p9
(dp10
I1
(dp11
g4
F0.20878487433709939
sg5
F0.18227860549736932
ssI3
(dp12
g4
F0.1999654138805626
sg5
F0.17320647096425235
ssI5
(dp13
g4
F0.18301821535623702
sg5
F0.15646358853321532
ssI40
(dp14
g4
F0.13840212128199217
sg5
F0.08152628214584255
ssI10
(dp15
g4
F0.17004842056721237
sg5
F0.13519693170084082
ssI80
(dp16
g4
F0.11649757897163938
sg5
F0.04440182917834489
ssI20
(dp17
g4
F0.15148720313580816
sg5
F0.10547278359640065
sssS'B100'
p18
(dp19
I1
(dp20
g4
F0.2554491984776842
sg5
F0.2529986397922592
ssI10
(dp21
g4
F0.10961826778918234
sg5
F0.0368245332014344
ssI3
(dp22
g4
F0.2138161688386576
sg5
F0.21031284778038828
ssI6
(dp23
g4
F0.16076577096067352
sg5
F0.14027451465314703
sssS'B100_full'
p24
(dp25
I1
(dp26
g4
F0.256563761016354
sg5
F0.2557446359254885
sS'time'
p27
I199
ssI10
(dp28
g4
F0.08642693084809376
sg5
F0.07595760300324336
sg27
I1403
ssI3
(dp29
g4
F0.21073112325076704
sg5
F0.2096574210703351
sg27
I328
ssI12
(dp30
g4
F0.06135195344205297
sg5
F0.042298787359468494
sg27
I5310
ssI6
(dp31
g4
F0.15251066377310485
sg5
F0.15067285713233472
sg27
I531
sssS'B10'
p32
(dp33
I1
(dp34
g4
F0.2738438473071157
sg5
F0.2718931618647212
ssI10
(dp35
g4
F0.1609387613885365
sg5
F0.1277111413379498
ssI3
(dp36
g4
F0.24414715719063546
sg5
F0.24050945962656115
ssI20
(dp37
g4
F0.13845000576634758
sg5
F0.005515024112773588
ssI6
(dp38
g4
F0.21692999654019143
sg5
F0.20885371584023743
sssS'B10_2'
p39
(dp40
I1
(dp41
g4
F0.27393800229621124
sg5
F0.27009487008000793
ssI10
(dp42
g4
F0.1605625717566016
sg5
F0.11703945901761165
ssI3
(dp43
g4
F0.2619402985074627
sg5
F0.25560427039211314
ssI20
(dp44
g4
F0.14299655568312283
sg5
F0.0111218448886577
ssI6
(dp45
g4
F0.21274397244546497
sg5
F0.19900423571375492
sssS'B_all_iter'
p46
(dp47
I1
(dp48
g4
F0.19681088953361697
sg5
F0.19422733555333666
ssI3
(dp49
g4
F0.18136990699861244
sg5
F0.17867419565869663
ssI5
(dp50
g4
F0.16865818836507918
sg5
F0.16509348115866465
ssI40
(dp51
g4
F0.10775432037888605
sg5
F0.09804823342498635
ssI10
(dp52
g4
F0.14927812116555622
sg5
F0.1444469584806914
ssI80
(dp53
g4
F0.09316193250232217
sg5
F0.08184335695980875
ssI20
(dp54
g4
F0.12445099365847505
sg5
F0.11795448173416034
sss.