(dp0
S'RFall_100'
p1
(dp2
I1
(dp3
S'test'
p4
F0.37008023248468
sS'train'
p5
F0.37146866620954405
ssI10
(dp6
g4
F0.21840810020732948
sg5
F0.2205764168958424
ssI3
(dp7
g4
F0.289640992654449
sg5
F0.29019177031799515
ssI6
(dp8
g4
F0.2532176270251954
sg5
F0.25488519094700574
ssI15
(dp9
g4
F0.19286809595736248
sg5
F0.1926280373464277
sssS'RFall_10'
p10
(dp11
I1
(dp12
g4
F0.4347141897208231
sg5
F0.4350283735527522
ssI3
(dp13
g4
F0.29120314267828323
sg5
F0.29215788917479535
ssI6
(dp14
g4
F0.2565544254216944
sg5
F0.25831115305498004
ssI10
(dp15
g4
F0.23009550939300133
sg5
F0.23181032851388447
ssI15
(dp16
g4
F0.1900252126419288
sg5
F0.18882605500709032
ssI20
(dp17
g4
F0.160103147847162
sg5
F0.154824487027302
sssS'RF10p_100'
p18
(dp19
I1
(dp20
g4
F0.3960270254663048
sg5
F0.39411605539566574
ssI3
(dp21
g4
F0.2815730207310735
sg5
F0.2798071483039382
ssI6
(dp22
g4
F0.26396027025466307
sg5
F0.26189949081248615
ssI10
(dp23
g4
F0.23081365132528728
sg5
F0.22281258455710526
ssI15
(dp24
g4
F0.1997459144193567
sg5
F0.18001131527808525
ssI20
(dp25
g4
F0.17803314661892938
sg5
F0.14658204806533343
sssS'RF10p_10'
p26
(dp27
I1
(dp28
g4
F0.41132990702777616
sg5
F0.4119253191646373
ssI3
(dp29
g4
F0.27504764104637064
sg5
F0.2733131626202248
ssI6
(dp30
g4
F0.2566264364497315
sg5
F0.2549627333776105
ssI10
(dp31
g4
F0.23167985216838943
sg5
F0.2252724276191179
ssI15
(dp32
g4
F0.20182479644280188
sg5
F0.18323370968932182
ssI20
(dp33
g4
F0.19091066581971472
sg5
F0.15942242884903943
sss.